; Function Attrs: mustprogress uwtable
define noundef i32 @_ZN3zmq11ws_engine_t20produce_ping_messageEPNS_5msg_tE(ptr noundef nonnull align 8 dereferenceable(25696) %this, ptr noundef nonnull %msg_) unnamed_addr #0 align 2 {
entry:
  %call = tail call noundef i32 @_ZN3zmq5msg_t4initEv(ptr noundef nonnull align 8 dereferenceable(64) %msg_)
  %cmp.not = icmp eq i32 %call, 0
  br i1 %cmp.not, label %do.end, label %if.then

if.then:                                          ; preds = %entry
  %call2 = tail call ptr @__errno_location() #22
  %0 = load i32, ptr %call2, align 4
  %call3 = tail call ptr @strerror(i32 noundef %0) #19
  %1 = load ptr, ptr @stderr, align 8
  %call4 = tail call i32 (ptr, ptr, ...) @fprintf(ptr noundef %1, ptr noundef nonnull @.str.4, ptr noundef %call3, ptr noundef nonnull @.str.5, i32 noundef 948) #23
  %2 = load ptr, ptr @stderr, align 8
  %call5 = tail call i32 @fflush(ptr noundef %2)
  tail call void @_ZN3zmq9zmq_abortEPKc(ptr noundef %call3)
  br label %do.end

do.end:                                           ; preds = %entry, %if.then
  tail call void @_ZN3zmq5msg_t9set_flagsEh(ptr noundef nonnull align 8 dereferenceable(64) %msg_, i8 noundef zeroext 6)
  %_next_msg = getelementptr inbounds i8, ptr %this, i64 1416
  store i64 ptrtoint (ptr @_ZN3zmq20stream_engine_base_t15pull_and_encodeEPNS_5msg_tE to i64), ptr %_next_msg, align 8
  %_next_msg.repack4 = getelementptr inbounds i8, ptr %this, i64 1424
  store i64 0, ptr %_next_msg.repack4, align 8
  %_has_timeout_timer = getelementptr inbounds i8, ptr %this, i64 1538
  %3 = load i8, ptr %_has_timeout_timer, align 2
  %4 = and i8 %3, 1
  %tobool.not = icmp eq i8 %4, 0
  br i1 %tobool.not, label %land.lhs.true, label %if.end10

land.lhs.true:                                    ; preds = %do.end
  %_heartbeat_timeout = getelementptr inbounds i8, ptr %this, i64 25628
  %5 = load i32, ptr %_heartbeat_timeout, align 4
  %cmp6 = icmp sgt i32 %5, 0
  br i1 %cmp6, label %if.then7, label %if.end10

if.then7:                                         ; preds = %land.lhs.true
  tail call void @_ZN3zmq11io_object_t9add_timerEii(ptr noundef nonnull align 8 dereferenceable(16) %this, i32 noundef %5, i32 noundef 129)
  store i8 1, ptr %_has_timeout_timer, align 2
  br label %if.end10

if.end10:                                         ; preds = %if.then7, %land.lhs.true, %do.end
  ret i32 %call
}